target datalayout = "e-m:e-p270:32:32-p271:32:32-p272:64:64-i64:64-i128:128-f80:128-n8:16:32:64-S128"
target triple = "x86_64-pc-linux-gnu"

%"class.boost::core::basic_string_view" = type { ptr, i64 }
%"class.boost::urls::url_view_base" = type { [8 x i8], %"struct.boost::urls::detail::url_impl", ptr }
%"struct.boost::urls::detail::url_impl" = type <{ ptr, [8 x i64], [7 x i64], i64, i64, [16 x i8], i16, [2 x i8], i32, i16, i8, [5 x i8] }>

; Function Attrs: mustprogress nounwind uwtable
define linkonce_odr hidden noundef zeroext i1 @_ZNK5boost4core17basic_string_viewIcE5emptyEv(ptr noundef nonnull align 8 dereferenceable(16) %0) #2 comdat align 2 {
  %2 = alloca ptr, align 8
  store ptr %0, ptr %2, align 8, !tbaa !7
  %3 = load ptr, ptr %2, align 8
  %4 = getelementptr inbounds nuw %"class.boost::core::basic_string_view", ptr %3, i32 0, i32 1
  %5 = load i64, ptr %4, align 8, !tbaa !60
  %6 = icmp eq i64 %5, 0
  ret i1 %6
}

; Function Attrs: mustprogress nounwind uwtable
define linkonce_odr hidden noundef zeroext i1 @_ZNK5boost4urls13url_view_base16is_path_absoluteEv(ptr noundef nonnull align 8 dereferenceable(192) %0) #2 comdat align 2 {
  %2 = alloca ptr, align 8
  store ptr %0, ptr %2, align 8, !tbaa !7
  %3 = load ptr, ptr %2, align 8
  %4 = getelementptr inbounds nuw %"class.boost::urls::url_view_base", ptr %3, i32 0, i32 2
  %5 = load ptr, ptr %4, align 8, !tbaa !33
  %6 = call noundef i64 @_ZNK5boost4urls6detail8url_impl3lenEi(ptr noundef nonnull align 8 dereferenceable(171) %5, i32 noundef 4) #9
  %7 = icmp ugt i64 %6, 0
  br i1 %7, label %8, label %20

8:                                                ; preds = %1
  %9 = getelementptr inbounds nuw %"class.boost::urls::url_view_base", ptr %3, i32 0, i32 2
  %10 = load ptr, ptr %9, align 8, !tbaa !33
  %11 = getelementptr inbounds nuw %"struct.boost::urls::detail::url_impl", ptr %10, i32 0, i32 0
  %12 = load ptr, ptr %11, align 8, !tbaa !36
  %13 = getelementptr inbounds nuw %"class.boost::urls::url_view_base", ptr %3, i32 0, i32 2
  %14 = load ptr, ptr %13, align 8, !tbaa !33
  %15 = call noundef i64 @_ZNK5boost4urls6detail8url_impl6offsetEi(ptr noundef nonnull align 8 dereferenceable(171) %14, i32 noundef 4) #9
  %16 = getelementptr inbounds nuw i8, ptr %12, i64 %15
  %17 = load i8, ptr %16, align 1, !tbaa !32
  %18 = sext i8 %17 to i32
  %19 = icmp eq i32 %18, 47
  br label %20

20:                                               ; preds = %8, %1
  %21 = phi i1 [ false, %1 ], [ %19, %8 ]
  ret i1 %21
}

; Function Attrs: mustprogress uwtable
define noundef ptr @_ZN5boost4urls8url_base11resize_implEimRNS1_4op_tE(ptr noundef nonnull align 8 dereferenceable(216) %0, i32 noundef %1, i64 noundef %2, ptr noundef nonnull align 8 dereferenceable(32) %3) #5 align 2 {
  %5 = alloca ptr, align 8
  %6 = alloca i32, align 4
  %7 = alloca i64, align 8
  %8 = alloca ptr, align 8
  store ptr %0, ptr %5, align 8, !tbaa !7
  store i32 %1, ptr %6, align 4, !tbaa !3
  store i64 %2, ptr %7, align 8, !tbaa !21
  store ptr %3, ptr %8, align 8, !tbaa !7
  %9 = load ptr, ptr %5, align 8
  %10 = load i32, ptr %6, align 4, !tbaa !3
  %11 = load i32, ptr %6, align 4, !tbaa !3
  %12 = add nsw i32 %11, 1
  %13 = load i64, ptr %7, align 8, !tbaa !21
  %14 = load ptr, ptr %8, align 8, !tbaa !7
  %15 = call noundef ptr @_ZN5boost4urls8url_base11resize_implEiimRNS1_4op_tE(ptr noundef nonnull align 8 dereferenceable(216) %9, i32 noundef %10, i32 noundef %12, i64 noundef %13, ptr noundef nonnull align 8 dereferenceable(32) %14)
  ret ptr %15
}

; Function Attrs: mustprogress nounwind uwtable
define void @_ZNK5boost4urls8url_base16check_invariantsEv(ptr noundef nonnull align 8 dereferenceable(216) %0) #2 align 2 {
  %2 = alloca ptr, align 8
  store ptr %0, ptr %2, align 8, !tbaa !7
  ret void
}

; Function Attrs: mustprogress uwtable
define noundef ptr @_ZN5boost4urls8url_base17set_password_implEmRNS1_4op_tE(ptr noundef nonnull align 8 dereferenceable(216) %0, i64 noundef %1, ptr noundef nonnull align 8 dereferenceable(32) %2) #5 align 2 {
  %4 = alloca ptr, align 8
  %5 = alloca ptr, align 8
  %6 = alloca i64, align 8
  %7 = alloca ptr, align 8
  %8 = alloca ptr, align 8
  %9 = alloca i8, align 1
  %10 = alloca %"class.boost::core::basic_string_view", align 8
  %11 = alloca ptr, align 8
  store ptr %0, ptr %5, align 8, !tbaa !7
  store i64 %1, ptr %6, align 8, !tbaa !21
  store ptr %2, ptr %7, align 8, !tbaa !7
  %12 = load ptr, ptr %5, align 8
  call void @_ZNK5boost4urls8url_base16check_invariantsEv(ptr noundef nonnull align 8 dereferenceable(216) %12) #9
  %13 = getelementptr inbounds i8, ptr %12, i64 8
  %14 = getelementptr inbounds nuw %"class.boost::urls::url_view_base", ptr %13, i32 0, i32 1
  %15 = call noundef i64 @_ZNK5boost4urls6detail8url_impl3lenEi(ptr noundef nonnull align 8 dereferenceable(171) %14, i32 noundef 0) #9
  %16 = icmp ne i64 %15, 0
  br i1 %16, label %17, label %31

17:                                               ; preds = %3
  call void @llvm.lifetime.start.p0(i64 8, ptr %8) #9
  %18 = load i64, ptr %6, align 8, !tbaa !21
  %19 = add i64 1, %18
  %20 = add i64 %19, 1
  %21 = load ptr, ptr %7, align 8, !tbaa !7
  %22 = call noundef ptr @_ZN5boost4urls8url_base11resize_implEimRNS1_4op_tE(ptr noundef nonnull align 8 dereferenceable(216) %12, i32 noundef 1, i64 noundef %20, ptr noundef nonnull align 8 dereferenceable(32) %21)
  store ptr %22, ptr %8, align 8, !tbaa !7
  %23 = load ptr, ptr %8, align 8, !tbaa !7
  %24 = getelementptr inbounds i8, ptr %23, i64 0
  store i8 58, ptr %24, align 1, !tbaa !32
  %25 = load ptr, ptr %8, align 8, !tbaa !7
  %26 = load i64, ptr %6, align 8, !tbaa !21
  %27 = add i64 %26, 1
  %28 = getelementptr inbounds nuw i8, ptr %25, i64 %27
  store i8 64, ptr %28, align 1, !tbaa !32
  call void @_ZNK5boost4urls8url_base16check_invariantsEv(ptr noundef nonnull align 8 dereferenceable(216) %12) #9
  %29 = load ptr, ptr %8, align 8, !tbaa !7
  %30 = getelementptr inbounds i8, ptr %29, i64 1
  store ptr %30, ptr %4, align 8
  call void @llvm.lifetime.end.p0(i64 8, ptr %8) #9
  br label %87

31:                                               ; preds = %3
  call void @llvm.lifetime.start.p0(i64 1, ptr %9) #9
  %32 = getelementptr inbounds i8, ptr %12, i64 8
  %33 = call noundef zeroext i1 @_ZNK5boost4urls13url_view_base16is_path_absoluteEv(ptr noundef nonnull align 8 dereferenceable(192) %32) #9
  call void @llvm.lifetime.start.p0(i64 16, ptr %10) #9
  br i1 %33, label %44, label %34

34:                                               ; preds = %31
  %35 = getelementptr inbounds i8, ptr %12, i64 8
  %36 = getelementptr inbounds nuw %"class.boost::urls::url_view_base", ptr %35, i32 0, i32 1
  %37 = call { ptr, i64 } @_ZNK5boost4urls6detail8url_impl3getEi(ptr noundef nonnull align 8 dereferenceable(171) %36, i32 noundef 4) #9
  %38 = getelementptr inbounds nuw { ptr, i64 }, ptr %10, i32 0, i32 0
  %39 = extractvalue { ptr, i64 } %37, 0
  store ptr %39, ptr %38, align 8
  %40 = getelementptr inbounds nuw { ptr, i64 }, ptr %10, i32 0, i32 1
  %41 = extractvalue { ptr, i64 } %37, 1
  store i64 %41, ptr %40, align 8
  %42 = call noundef zeroext i1 @_ZNK5boost4core17basic_string_viewIcE5emptyEv(ptr noundef nonnull align 8 dereferenceable(16) %10) #9
  %43 = xor i1 %42, true
  br label %44

44:                                               ; preds = %34, %31
  %45 = phi i1 [ false, %31 ], [ %43, %34 ]
  call void @llvm.lifetime.end.p0(i64 16, ptr %10) #9
  %46 = zext i1 %45 to i8
  store i8 %46, ptr %9, align 1, !tbaa !42
  call void @llvm.lifetime.start.p0(i64 8, ptr %11) #9
  %47 = load i64, ptr %6, align 8, !tbaa !21
  %48 = add i64 3, %47
  %49 = add i64 %48, 1
  %50 = load i8, ptr %9, align 1, !tbaa !42, !range !44, !noundef !45
  %51 = trunc i8 %50 to i1
  %52 = zext i1 %51 to i64
  %53 = add i64 %49, %52
  %54 = load ptr, ptr %7, align 8, !tbaa !7
  %55 = call noundef ptr @_ZN5boost4urls8url_base11resize_implEiimRNS1_4op_tE(ptr noundef nonnull align 8 dereferenceable(216) %12, i32 noundef 0, i32 noundef 2, i64 noundef %53, ptr noundef nonnull align 8 dereferenceable(32) %54)
  store ptr %55, ptr %11, align 8, !tbaa !7
  %56 = getelementptr inbounds i8, ptr %12, i64 8
  %57 = getelementptr inbounds nuw %"class.boost::urls::url_view_base", ptr %56, i32 0, i32 1
  call void @_ZN5boost4urls6detail8url_impl5splitEim(ptr noundef nonnull align 8 dereferenceable(171) %57, i32 noundef 0, i64 noundef 2) #9
  %58 = load ptr, ptr %11, align 8, !tbaa !7
  %59 = getelementptr inbounds i8, ptr %58, i64 0
  store i8 47, ptr %59, align 1, !tbaa !32
  %60 = load ptr, ptr %11, align 8, !tbaa !7
  %61 = getelementptr inbounds i8, ptr %60, i64 1
  store i8 47, ptr %61, align 1, !tbaa !32
  %62 = load ptr, ptr %11, align 8, !tbaa !7
  %63 = getelementptr inbounds i8, ptr %62, i64 2
  store i8 58, ptr %63, align 1, !tbaa !32
  %64 = load ptr, ptr %11, align 8, !tbaa !7
  %65 = load i64, ptr %6, align 8, !tbaa !21
  %66 = add i64 2, %65
  %67 = add i64 %66, 1
  %68 = getelementptr inbounds nuw i8, ptr %64, i64 %67
  store i8 64, ptr %68, align 1, !tbaa !32
  %69 = load i8, ptr %9, align 1, !tbaa !42, !range !44, !noundef !45
  %70 = trunc i8 %69 to i1
  br i1 %70, label %71, label %84

71:                                               ; preds = %44
  %72 = getelementptr inbounds i8, ptr %12, i64 8
  %73 = getelementptr inbounds nuw %"class.boost::urls::url_view_base", ptr %72, i32 0, i32 1
  %74 = load i64, ptr %6, align 8, !tbaa !21
  %75 = add i64 2, %74
  call void @_ZN5boost4urls6detail8url_impl5splitEim(ptr noundef nonnull align 8 dereferenceable(171) %73, i32 noundef 1, i64 noundef %75) #9
  %76 = getelementptr inbounds i8, ptr %12, i64 8
  %77 = getelementptr inbounds nuw %"class.boost::urls::url_view_base", ptr %76, i32 0, i32 1
  call void @_ZN5boost4urls6detail8url_impl5splitEim(ptr noundef nonnull align 8 dereferenceable(171) %77, i32 noundef 2, i64 noundef 0) #9
  %78 = getelementptr inbounds i8, ptr %12, i64 8
  %79 = getelementptr inbounds nuw %"class.boost::urls::url_view_base", ptr %78, i32 0, i32 1
  call void @_ZN5boost4urls6detail8url_impl5splitEim(ptr noundef nonnull align 8 dereferenceable(171) %79, i32 noundef 3, i64 noundef 0) #9
  %80 = load ptr, ptr %11, align 8, !tbaa !7
  %81 = load i64, ptr %6, align 8, !tbaa !21
  %82 = add i64 4, %81
  %83 = getelementptr inbounds nuw i8, ptr %80, i64 %82
  store i8 47, ptr %83, align 1, !tbaa !32
  br label %84

84:                                               ; preds = %71, %44
  call void @_ZNK5boost4urls8url_base16check_invariantsEv(ptr noundef nonnull align 8 dereferenceable(216) %12) #9
  %85 = load ptr, ptr %11, align 8, !tbaa !7
  %86 = getelementptr inbounds i8, ptr %85, i64 3
  store ptr %86, ptr %4, align 8
  call void @llvm.lifetime.end.p0(i64 8, ptr %11) #9
  call void @llvm.lifetime.end.p0(i64 1, ptr %9) #9
  br label %87

87:                                               ; preds = %84, %17
  %88 = load ptr, ptr %4, align 8
  ret ptr %88
}