; Function Attrs: mustprogress uwtable
define noundef nonnull ptr @_ZN5boost4urls8url_base17set_password_implEmRNS1_4op_tE(ptr noundef nonnull align 8 dereferenceable(216) %0, i64 noundef %1, ptr noundef nonnull align 8 dereferenceable(32) %2) local_unnamed_addr #10 align 2 {
  %4 = getelementptr inbounds i8, ptr %0, i64 16
  %5 = tail call noundef i64 @_ZNK5boost4urls6detail8url_impl3lenEi(ptr noundef nonnull align 8 dereferenceable(171) %4, i32 noundef 0) #30
  %.not = icmp eq i64 %5, 0
  br i1 %.not, label %12, label %6

6:                                                ; preds = %3
  %7 = add i64 %1, 2
  %8 = tail call noundef ptr @_ZN5boost4urls8url_base11resize_implEiimRNS1_4op_tE(ptr noundef nonnull align 8 dereferenceable(216) %0, i32 noundef 1, i32 noundef 2, i64 noundef %7, ptr noundef nonnull align 8 dereferenceable(32) %2)
  store i8 58, ptr %8, align 1, !tbaa !25
  %9 = getelementptr i8, ptr %8, i64 %1
  %10 = getelementptr i8, ptr %9, i64 1
  store i8 64, ptr %10, align 1, !tbaa !25
  %11 = getelementptr inbounds i8, ptr %8, i64 1
  br label %40

12:                                               ; preds = %3
  %13 = getelementptr inbounds i8, ptr %0, i64 192
  %14 = load ptr, ptr %13, align 8, !tbaa !24
  %15 = tail call noundef i64 @_ZNK5boost4urls6detail8url_impl3lenEi(ptr noundef nonnull align 8 dereferenceable(171) %14, i32 noundef 4) #30
  %.not.i = icmp eq i64 %15, 0
  br i1 %.not.i, label %_ZNK5boost4urls13url_view_base16is_path_absoluteEv.exit.thread, label %_ZNK5boost4urls13url_view_base16is_path_absoluteEv.exit

_ZNK5boost4urls13url_view_base16is_path_absoluteEv.exit: ; preds = %12
  %16 = load ptr, ptr %13, align 8, !tbaa !24
  %17 = load ptr, ptr %16, align 8, !tbaa !28
  %18 = tail call noundef i64 @_ZNK5boost4urls6detail8url_impl6offsetEi(ptr noundef nonnull align 8 dereferenceable(171) %16, i32 noundef 4) #30
  %19 = getelementptr inbounds nuw i8, ptr %17, i64 %18
  %20 = load i8, ptr %19, align 1, !tbaa !25
  %21 = icmp eq i8 %20, 47
  br i1 %21, label %25, label %_ZNK5boost4urls13url_view_base16is_path_absoluteEv.exit.thread

_ZNK5boost4urls13url_view_base16is_path_absoluteEv.exit.thread: ; preds = %12, %_ZNK5boost4urls13url_view_base16is_path_absoluteEv.exit
  %22 = tail call { ptr, i64 } @_ZNK5boost4urls6detail8url_impl3getEi(ptr noundef nonnull align 8 dereferenceable(171) %4, i32 noundef 4) #30
  %23 = extractvalue { ptr, i64 } %22, 1
  %24 = icmp ne i64 %23, 0
  br label %25

25:                                               ; preds = %_ZNK5boost4urls13url_view_base16is_path_absoluteEv.exit.thread, %_ZNK5boost4urls13url_view_base16is_path_absoluteEv.exit
  %26 = phi i1 [ false, %_ZNK5boost4urls13url_view_base16is_path_absoluteEv.exit ], [ %24, %_ZNK5boost4urls13url_view_base16is_path_absoluteEv.exit.thread ]
  %27 = add i64 %1, 4
  %28 = zext i1 %26 to i64
  %29 = add i64 %27, %28
  %30 = tail call noundef ptr @_ZN5boost4urls8url_base11resize_implEiimRNS1_4op_tE(ptr noundef nonnull align 8 dereferenceable(216) %0, i32 noundef 0, i32 noundef 2, i64 noundef %29, ptr noundef nonnull align 8 dereferenceable(32) %2)
  tail call void @_ZN5boost4urls6detail8url_impl5splitEim(ptr noundef nonnull align 8 dereferenceable(171) %4, i32 noundef 0, i64 noundef 2) #30
  store i8 47, ptr %30, align 1, !tbaa !25
  %31 = getelementptr inbounds i8, ptr %30, i64 1
  store i8 47, ptr %31, align 1, !tbaa !25
  %32 = getelementptr inbounds i8, ptr %30, i64 2
  store i8 58, ptr %32, align 1, !tbaa !25
  %33 = getelementptr i8, ptr %30, i64 %1
  %34 = getelementptr i8, ptr %33, i64 3
  store i8 64, ptr %34, align 1, !tbaa !25
  br i1 %26, label %35, label %38

35:                                               ; preds = %25
  %36 = add i64 %1, 2
  tail call void @_ZN5boost4urls6detail8url_impl5splitEim(ptr noundef nonnull align 8 dereferenceable(171) %4, i32 noundef 1, i64 noundef %36) #30
  tail call void @_ZN5boost4urls6detail8url_impl5splitEim(ptr noundef nonnull align 8 dereferenceable(171) %4, i32 noundef 2, i64 noundef 0) #30
  tail call void @_ZN5boost4urls6detail8url_impl5splitEim(ptr noundef nonnull align 8 dereferenceable(171) %4, i32 noundef 3, i64 noundef 0) #30
  %37 = getelementptr i8, ptr %33, i64 4
  store i8 47, ptr %37, align 1, !tbaa !25
  br label %38

38:                                               ; preds = %35, %25
  %39 = getelementptr inbounds i8, ptr %30, i64 3
  br label %40

40:                                               ; preds = %38, %6
  %.0 = phi ptr [ %11, %6 ], [ %39, %38 ]
  ret ptr %.0
}